(dp0
S'elevAC'
p1
I360
sS'azoffset'
p2
F144.41496
sS'eloffset'
p3
F295.026
sS'elgain'
p4
F-0.009
sS'azAC'
p5
I180
sS'elevSP'
p6
I5
sS'azSP'
p7
I5
sS'degtoctsAZ'
p8
F2844.4444444444443
sS'azSPm'
p9
I5
sS'degtoctsEL'
p10
F11.377777777777778
sS'azDC'
p11
I180
sS'elevDC'
p12
I360
sS'location'
p13
S'UCSB'
p14
sS'azgain'
p15
F-0.0054931640625
s.